; Function Attrs: mustprogress uwtable
define void @cvSubstituteContour(ptr noundef %0, ptr noundef %1) local_unnamed_addr #0 personality ptr @__gxx_personality_v0 {
  %3 = alloca %"class.std::__cxx11::basic_string", align 8
  %4 = alloca %"class.std::allocator", align 1
  %.not = icmp eq ptr %0, null
  br i1 %.not, label %5, label %15

5:                                                ; preds = %2
  call void @llvm.lifetime.start.p0(i64 32, ptr nonnull %3) #17
  call void @llvm.lifetime.start.p0(i64 1, ptr nonnull %4) #17
  call void @_ZNSt7__cxx1112basic_stringIcSt11char_traitsIcESaIcEEC2EPKcRKS3_(ptr noundef nonnull align 8 dereferenceable(32) %3, ptr noundef nonnull @.str, ptr noundef nonnull align 1 dereferenceable(1) %4)
  invoke void @_ZN2cv5errorEiRKNSt7__cxx1112basic_stringIcSt11char_traitsIcESaIcEEEPKcS9_i(i32 noundef -27, ptr noundef nonnull align 8 dereferenceable(32) %3, ptr noundef nonnull @__func__.cvSubstituteContour, ptr noundef nonnull @.str.1, i32 noundef 491) #18
          to label %6 unwind label %7

6:                                                ; preds = %5
  unreachable

7:                                                ; preds = %5
  %8 = landingpad { ptr, i32 }
          cleanup
  %9 = load ptr, ptr %3, align 8, !tbaa !3
  %10 = getelementptr inbounds nuw i8, ptr %3, i64 16
  %11 = icmp eq ptr %9, %10
  br i1 %11, label %_ZNKSt7__cxx1112basic_stringIcSt11char_traitsIcESaIcEE11_M_is_localEv.exit.thread.i.i, label %_ZNKSt7__cxx1112basic_stringIcSt11char_traitsIcESaIcEE11_M_is_localEv.exit.i.i

_ZNKSt7__cxx1112basic_stringIcSt11char_traitsIcESaIcEE11_M_is_localEv.exit.thread.i.i: ; preds = %7
  %12 = getelementptr inbounds nuw i8, ptr %3, i64 8
  %13 = load i64, ptr %12, align 8, !tbaa !11
  %14 = icmp ult i64 %13, 16
  call void @llvm.assume(i1 %14)
  br label %_ZNSt7__cxx1112basic_stringIcSt11char_traitsIcESaIcEED2Ev.exit

_ZNKSt7__cxx1112basic_stringIcSt11char_traitsIcESaIcEE11_M_is_localEv.exit.i.i: ; preds = %7
  call void @_ZdlPv(ptr noundef %9) #19
  br label %_ZNSt7__cxx1112basic_stringIcSt11char_traitsIcESaIcEED2Ev.exit

_ZNSt7__cxx1112basic_stringIcSt11char_traitsIcESaIcEED2Ev.exit: ; preds = %_ZNKSt7__cxx1112basic_stringIcSt11char_traitsIcESaIcEE11_M_is_localEv.exit.i.i, %_ZNKSt7__cxx1112basic_stringIcSt11char_traitsIcESaIcEE11_M_is_localEv.exit.thread.i.i
  call void @llvm.lifetime.end.p0(i64 1, ptr nonnull %4) #17
  call void @llvm.lifetime.end.p0(i64 32, ptr nonnull %3) #17
  resume { ptr, i32 } %8

15:                                               ; preds = %2
  %16 = getelementptr inbounds nuw i8, ptr %0, i64 136
  %17 = load ptr, ptr %16, align 8, !tbaa !72
  %.not16 = icmp eq ptr %17, null
  br i1 %.not16, label %23, label %18

18:                                               ; preds = %15
  %19 = getelementptr inbounds nuw i8, ptr %17, i64 24
  %20 = load ptr, ptr %19, align 8, !tbaa !73
  %.not17 = icmp eq ptr %20, null
  %.not18 = icmp eq ptr %20, %1
  %or.cond = or i1 %.not17, %.not18
  br i1 %or.cond, label %23, label %21

21:                                               ; preds = %18
  store ptr %1, ptr %19, align 8, !tbaa !73
  %22 = getelementptr inbounds nuw i8, ptr %0, i64 380
  store i32 1, ptr %22, align 4, !tbaa !58
  br label %23

23:                                               ; preds = %21, %18, %15
  ret void
}